target datalayout = "e-m:e-p270:32:32-p271:32:32-p272:64:64-i64:64-i128:128-f80:128-n8:16:32:64-S128"
target triple = "x86_64-pc-linux-gnu"

%struct.engine_st = type { ptr, ptr, ptr, ptr, ptr, ptr, ptr, ptr, ptr, ptr, ptr, ptr, ptr, ptr, ptr, ptr, ptr, ptr, ptr, i32, %struct.CRYPTO_REF_COUNT, i32, %struct.crypto_ex_data_st, ptr, ptr, ptr, ptr, ptr }
%struct.CRYPTO_REF_COUNT = type { i32 }
%struct.crypto_ex_data_st = type { ptr, ptr }
%struct.evp_pkey_asn1_method_st = type { i32, i32, i64, ptr, ptr, ptr, ptr, ptr, ptr, ptr, ptr, ptr, ptr, ptr, ptr, ptr, ptr, ptr, ptr, ptr, ptr, ptr, ptr, ptr, ptr, ptr, ptr, ptr, ptr, ptr, ptr, ptr, ptr, ptr, ptr, ptr, ptr, ptr, ptr, ptr, ptr }
%struct.ENGINE_FIND_STR = type { ptr, ptr, ptr, i32 }

; Function Attrs: inlinehint nounwind uwtable
define internal ptr @sk_ENGINE_value(ptr noundef %0, i32 noundef %1) #4 {
  %3 = alloca ptr, align 8
  %4 = alloca i32, align 4
  store ptr %0, ptr %3, align 8, !tbaa !45
  store i32 %1, ptr %4, align 4, !tbaa !22
  %5 = load ptr, ptr %3, align 8, !tbaa !45
  %6 = load i32, ptr %4, align 4, !tbaa !22
  %7 = call ptr @OPENSSL_sk_value(ptr noundef %5, i32 noundef %6)
  ret ptr %7
}

; Function Attrs: inlinehint nounwind uwtable
define internal i32 @sk_ENGINE_num(ptr noundef %0) #4 {
  %2 = alloca ptr, align 8
  store ptr %0, ptr %2, align 8, !tbaa !45
  %3 = load ptr, ptr %2, align 8, !tbaa !45
  %4 = call i32 @OPENSSL_sk_num(ptr noundef %3)
  ret i32 %4
}

; Function Attrs: nounwind uwtable
define internal void @look_str_cb(i32 noundef %0, ptr noundef %1, ptr noundef %2, ptr noundef %3) #0 {
  %5 = alloca i32, align 4
  %6 = alloca ptr, align 8
  %7 = alloca ptr, align 8
  %8 = alloca ptr, align 8
  %9 = alloca ptr, align 8
  %10 = alloca i32, align 4
  %11 = alloca i32, align 4
  %12 = alloca ptr, align 8
  %13 = alloca ptr, align 8
  store i32 %0, ptr %5, align 4, !tbaa !22
  store ptr %1, ptr %6, align 8, !tbaa !45
  store ptr %2, ptr %7, align 8, !tbaa !3
  store ptr %3, ptr %8, align 8, !tbaa !27
  call void @llvm.lifetime.start.p0(i64 8, ptr %9) #5
  %14 = load ptr, ptr %8, align 8, !tbaa !27
  store ptr %14, ptr %9, align 8, !tbaa !27
  call void @llvm.lifetime.start.p0(i64 4, ptr %10) #5
  %15 = load ptr, ptr %9, align 8, !tbaa !27
  %16 = getelementptr inbounds nuw %struct.ENGINE_FIND_STR, ptr %15, i32 0, i32 1
  %17 = load ptr, ptr %16, align 8, !tbaa !40
  %18 = icmp ne ptr %17, null
  br i1 %18, label %19, label %20

19:                                               ; preds = %4
  store i32 1, ptr %11, align 4
  br label %76

20:                                               ; preds = %4
  store i32 0, ptr %10, align 4, !tbaa !22
  br label %21

21:                                               ; preds = %72, %20
  %22 = load i32, ptr %10, align 4, !tbaa !22
  %23 = load ptr, ptr %6, align 8, !tbaa !45
  %24 = call i32 @sk_ENGINE_num(ptr noundef %23)
  %25 = icmp slt i32 %22, %24
  br i1 %25, label %26, label %75

26:                                               ; preds = %21
  call void @llvm.lifetime.start.p0(i64 8, ptr %12) #5
  %27 = load ptr, ptr %6, align 8, !tbaa !45
  %28 = load i32, ptr %10, align 4, !tbaa !22
  %29 = call ptr @sk_ENGINE_value(ptr noundef %27, i32 noundef %28)
  store ptr %29, ptr %12, align 8, !tbaa !3
  call void @llvm.lifetime.start.p0(i64 8, ptr %13) #5
  %30 = load ptr, ptr %12, align 8, !tbaa !3
  %31 = getelementptr inbounds nuw %struct.engine_st, ptr %30, i32 0, i32 10
  %32 = load ptr, ptr %31, align 8, !tbaa !8
  %33 = load ptr, ptr %12, align 8, !tbaa !3
  %34 = load i32, ptr %5, align 4, !tbaa !22
  %35 = call i32 %32(ptr noundef %33, ptr noundef %13, ptr noundef null, i32 noundef %34)
  %36 = load ptr, ptr %13, align 8, !tbaa !28
  %37 = icmp ne ptr %36, null
  br i1 %37, label %38, label %68

38:                                               ; preds = %26
  %39 = load ptr, ptr %13, align 8, !tbaa !28
  %40 = getelementptr inbounds nuw %struct.evp_pkey_asn1_method_st, ptr %39, i32 0, i32 3
  %41 = load ptr, ptr %40, align 8, !tbaa !32
  %42 = call i64 @strlen(ptr noundef %41) #6
  %43 = trunc i64 %42 to i32
  %44 = load ptr, ptr %9, align 8, !tbaa !27
  %45 = getelementptr inbounds nuw %struct.ENGINE_FIND_STR, ptr %44, i32 0, i32 3
  %46 = load i32, ptr %45, align 8, !tbaa !42
  %47 = icmp eq i32 %43, %46
  br i1 %47, label %48, label %68

48:                                               ; preds = %38
  %49 = load ptr, ptr %13, align 8, !tbaa !28
  %50 = getelementptr inbounds nuw %struct.evp_pkey_asn1_method_st, ptr %49, i32 0, i32 3
  %51 = load ptr, ptr %50, align 8, !tbaa !32
  %52 = load ptr, ptr %9, align 8, !tbaa !27
  %53 = getelementptr inbounds nuw %struct.ENGINE_FIND_STR, ptr %52, i32 0, i32 2
  %54 = load ptr, ptr %53, align 8, !tbaa !41
  %55 = load ptr, ptr %9, align 8, !tbaa !27
  %56 = getelementptr inbounds nuw %struct.ENGINE_FIND_STR, ptr %55, i32 0, i32 3
  %57 = load i32, ptr %56, align 8, !tbaa !42
  %58 = sext i32 %57 to i64
  %59 = call i32 @OPENSSL_strncasecmp(ptr noundef %51, ptr noundef %54, i64 noundef %58)
  %60 = icmp eq i32 %59, 0
  br i1 %60, label %61, label %68

61:                                               ; preds = %48
  %62 = load ptr, ptr %12, align 8, !tbaa !3
  %63 = load ptr, ptr %9, align 8, !tbaa !27
  %64 = getelementptr inbounds nuw %struct.ENGINE_FIND_STR, ptr %63, i32 0, i32 0
  store ptr %62, ptr %64, align 8, !tbaa !38
  %65 = load ptr, ptr %13, align 8, !tbaa !28
  %66 = load ptr, ptr %9, align 8, !tbaa !27
  %67 = getelementptr inbounds nuw %struct.ENGINE_FIND_STR, ptr %66, i32 0, i32 1
  store ptr %65, ptr %67, align 8, !tbaa !40
  store i32 1, ptr %11, align 4
  br label %69

68:                                               ; preds = %48, %38, %26
  store i32 0, ptr %11, align 4
  br label %69

69:                                               ; preds = %68, %61
  call void @llvm.lifetime.end.p0(i64 8, ptr %13) #5
  call void @llvm.lifetime.end.p0(i64 8, ptr %12) #5
  %70 = load i32, ptr %11, align 4
  switch i32 %70, label %76 [
    i32 0, label %71
  ]

71:                                               ; preds = %69
  br label %72

72:                                               ; preds = %71
  %73 = load i32, ptr %10, align 4, !tbaa !22
  %74 = add nsw i32 %73, 1
  store i32 %74, ptr %10, align 4, !tbaa !22
  br label %21, !llvm.loop !47

75:                                               ; preds = %21
  store i32 0, ptr %11, align 4
  br label %76

76:                                               ; preds = %75, %69, %19
  call void @llvm.lifetime.end.p0(i64 4, ptr %10) #5
  call void @llvm.lifetime.end.p0(i64 8, ptr %9) #5
  %77 = load i32, ptr %11, align 4
  switch i32 %77, label %79 [
    i32 0, label %78
    i32 1, label %78
  ]

78:                                               ; preds = %76, %76
  ret void

79:                                               ; preds = %76
  unreachable
}