; Function Attrs: nounwind uwtable
define internal void @look_str_cb(i32 noundef %0, ptr noundef %1, ptr readnone captures(none) %2, ptr noundef captures(none) %3) #0 {
  %5 = alloca ptr, align 8
  %6 = getelementptr inbounds nuw i8, ptr %3, i64 8
  %7 = load ptr, ptr %6, align 8, !tbaa !41
  %.not = icmp eq ptr %7, null
  br i1 %.not, label %.preheader, label %.loopexit

.preheader:                                       ; preds = %4
  %8 = tail call i32 @OPENSSL_sk_num(ptr noundef %1) #7
  %9 = icmp sgt i32 %8, 0
  br i1 %9, label %.lr.ph, label %.loopexit

.lr.ph:                                           ; preds = %.preheader
  %10 = getelementptr inbounds nuw i8, ptr %3, i64 24
  %11 = getelementptr inbounds nuw i8, ptr %3, i64 16
  br label %12

12:                                               ; preds = %.lr.ph, %31
  %.020 = phi i32 [ 0, %.lr.ph ], [ %32, %31 ]
  %13 = call ptr @OPENSSL_sk_value(ptr noundef %1, i32 noundef %.020) #7
  call void @llvm.lifetime.start.p0(i64 8, ptr nonnull %5) #7
  %14 = getelementptr inbounds nuw i8, ptr %13, i64 80
  %15 = load ptr, ptr %14, align 8, !tbaa !3
  %16 = call i32 %15(ptr noundef %13, ptr noundef nonnull %5, ptr noundef null, i32 noundef %0) #7
  %17 = load ptr, ptr %5, align 8, !tbaa !25
  %.not19 = icmp eq ptr %17, null
  br i1 %.not19, label %31, label %18

18:                                               ; preds = %12
  %19 = getelementptr inbounds nuw i8, ptr %17, i64 16
  %20 = load ptr, ptr %19, align 8, !tbaa !29
  %21 = call i64 @strlen(ptr noundef nonnull dereferenceable(1) %20) #8
  %22 = trunc i64 %21 to i32
  %23 = load i32, ptr %10, align 8, !tbaa !35
  %24 = icmp eq i32 %23, %22
  br i1 %24, label %25, label %31

25:                                               ; preds = %18
  %26 = load ptr, ptr %11, align 8, !tbaa !33
  %sext = shl i64 %21, 32
  %27 = ashr exact i64 %sext, 32
  %28 = call i32 @OPENSSL_strncasecmp(ptr noundef nonnull %20, ptr noundef %26, i64 noundef %27) #7
  %29 = icmp eq i32 %28, 0
  br i1 %29, label %.critedge, label %31

.critedge:                                        ; preds = %25
  store ptr %13, ptr %3, align 8, !tbaa !39
  %30 = load ptr, ptr %5, align 8, !tbaa !25
  store ptr %30, ptr %6, align 8, !tbaa !41
  call void @llvm.lifetime.end.p0(i64 8, ptr nonnull %5) #7
  br label %.loopexit

31:                                               ; preds = %12, %18, %25
  call void @llvm.lifetime.end.p0(i64 8, ptr nonnull %5) #7
  %32 = add nuw nsw i32 %.020, 1
  %33 = call i32 @OPENSSL_sk_num(ptr noundef %1) #7
  %34 = icmp slt i32 %32, %33
  br i1 %34, label %12, label %.loopexit, !llvm.loop !42

.loopexit:                                        ; preds = %31, %.preheader, %.critedge, %4
  ret void
}